target datalayout = "e-m:e-p270:32:32-p271:32:32-p272:64:64-i64:64-i128:128-f80:128-n8:16:32:64-S128"
target triple = "x86_64-pc-linux-gnu"

%"struct.absl::container_internal::HashtablezInfo" = type { %"struct.absl::profiling_internal::Sample", %"struct.std::atomic", %"struct.std::atomic", %"struct.std::atomic", %"struct.std::atomic", %"struct.std::atomic", %"struct.std::atomic", %"struct.std::atomic", %"struct.std::atomic", %"struct.std::atomic", %"struct.std::atomic", %"class.absl::Time", i32, i16, [64 x ptr], i64, i64, i64 }
%"struct.absl::profiling_internal::Sample" = type { %"class.absl::Mutex", ptr, ptr, i64 }
%"class.absl::Mutex" = type { %"struct.std::atomic.2" }
%"struct.std::atomic.2" = type { %"struct.std::__atomic_base.3" }
%"struct.std::__atomic_base.3" = type { i64 }
%"struct.std::atomic" = type { %"struct.std::__atomic_base" }
%"struct.std::__atomic_base" = type { i64 }
%"class.absl::Time" = type { %"class.absl::Duration" }
%"class.absl::Duration" = type { %"class.absl::Duration::HiRep", i32 }
%"class.absl::Duration::HiRep" = type { i32, i32 }

; Function Attrs: mustprogress nounwind uwtable
define linkonce_odr dso_local noundef i32 @_ZStanSt12memory_orderSt23__memory_order_modifier(i32 noundef %0, i32 noundef %1) #4 comdat {
  %3 = alloca i32, align 4
  %4 = alloca i32, align 4
  store i32 %0, ptr %3, align 4, !tbaa !43
  store i32 %1, ptr %4, align 4, !tbaa !116
  %5 = load i32, ptr %3, align 4, !tbaa !43
  %6 = load i32, ptr %4, align 4, !tbaa !116
  %7 = and i32 %5, %6
  ret i32 %7
}

; Function Attrs: alwaysinline mustprogress nounwind uwtable
define linkonce_odr dso_local void @_ZNSt13__atomic_baseImE5storeEmSt12memory_order(ptr noundef nonnull align 8 dereferenceable(8) %0, i64 noundef %1, i32 noundef %2) #5 comdat align 2 {
  %4 = alloca ptr, align 8
  %5 = alloca i64, align 8
  %6 = alloca i32, align 4
  %7 = alloca i32, align 4
  %8 = alloca i64, align 8
  store ptr %0, ptr %4, align 8, !tbaa !41
  store i64 %1, ptr %5, align 8, !tbaa !23
  store i32 %2, ptr %6, align 4, !tbaa !43
  %9 = load ptr, ptr %4, align 8
  call void @llvm.lifetime.start.p0(i64 4, ptr %7) #1
  %10 = load i32, ptr %6, align 4, !tbaa !43
  %11 = call noundef i32 @_ZStanSt12memory_orderSt23__memory_order_modifier(i32 noundef %10, i32 noundef 65535)
  store i32 %11, ptr %7, align 4, !tbaa !43
  br label %12

12:                                               ; preds = %3
  br label %13

13:                                               ; preds = %12
  br label %14

14:                                               ; preds = %13
  br label %15

15:                                               ; preds = %14
  br label %16

16:                                               ; preds = %15
  br label %17

17:                                               ; preds = %16
  br label %18

18:                                               ; preds = %17
  br label %19

19:                                               ; preds = %18
  br label %20

20:                                               ; preds = %19
  %21 = getelementptr inbounds nuw %"struct.std::__atomic_base", ptr %9, i32 0, i32 0
  %22 = load i32, ptr %6, align 4, !tbaa !43
  %23 = load i64, ptr %5, align 8, !tbaa !23
  store i64 %23, ptr %8, align 8, !tbaa !23
  switch i32 %22, label %24 [
    i32 3, label %26
    i32 5, label %28
  ]

24:                                               ; preds = %20
  %25 = load i64, ptr %8, align 8
  store atomic i64 %25, ptr %21 monotonic, align 8
  br label %30

26:                                               ; preds = %20
  %27 = load i64, ptr %8, align 8
  store atomic i64 %27, ptr %21 release, align 8
  br label %30

28:                                               ; preds = %20
  %29 = load i64, ptr %8, align 8
  store atomic i64 %29, ptr %21 seq_cst, align 8
  br label %30

30:                                               ; preds = %28, %26, %24
  call void @llvm.lifetime.end.p0(i64 4, ptr %7) #1
  ret void
}

; Function Attrs: mustprogress uwtable
define dso_local void @_ZN4absl18container_internal14HashtablezInfo18PrepareForSamplingElmmmt(ptr noundef nonnull align 8 dereferenceable(672) %0, i64 noundef %1, i64 noundef %2, i64 noundef %3, i64 noundef %4, i16 noundef zeroext %5) #0 align 2 {
  %7 = alloca ptr, align 8
  %8 = alloca i64, align 8
  %9 = alloca i64, align 8
  %10 = alloca i64, align 8
  %11 = alloca i64, align 8
  %12 = alloca i16, align 2
  %13 = alloca %"class.absl::Time", align 4
  %14 = alloca { i64, i32 }, align 8
  store ptr %0, ptr %7, align 8, !tbaa !10
  store i64 %1, ptr %8, align 8, !tbaa !23
  store i64 %2, ptr %9, align 8, !tbaa !23
  store i64 %3, ptr %10, align 8, !tbaa !23
  store i64 %4, ptr %11, align 8, !tbaa !23
  store i16 %5, ptr %12, align 2, !tbaa !24
  %15 = load ptr, ptr %7, align 8
  %16 = getelementptr inbounds nuw %"struct.absl::container_internal::HashtablezInfo", ptr %15, i32 0, i32 1
  call void @_ZNSt13__atomic_baseImE5storeEmSt12memory_order(ptr noundef nonnull align 8 dereferenceable(8) %16, i64 noundef 0, i32 noundef 0) #1
  %17 = getelementptr inbounds nuw %"struct.absl::container_internal::HashtablezInfo", ptr %15, i32 0, i32 2
  call void @_ZNSt13__atomic_baseImE5storeEmSt12memory_order(ptr noundef nonnull align 8 dereferenceable(8) %17, i64 noundef 0, i32 noundef 0) #1
  %18 = getelementptr inbounds nuw %"struct.absl::container_internal::HashtablezInfo", ptr %15, i32 0, i32 3
  call void @_ZNSt13__atomic_baseImE5storeEmSt12memory_order(ptr noundef nonnull align 8 dereferenceable(8) %18, i64 noundef 0, i32 noundef 0) #1
  %19 = getelementptr inbounds nuw %"struct.absl::container_internal::HashtablezInfo", ptr %15, i32 0, i32 4
  call void @_ZNSt13__atomic_baseImE5storeEmSt12memory_order(ptr noundef nonnull align 8 dereferenceable(8) %19, i64 noundef 0, i32 noundef 0) #1
  %20 = getelementptr inbounds nuw %"struct.absl::container_internal::HashtablezInfo", ptr %15, i32 0, i32 5
  call void @_ZNSt13__atomic_baseImE5storeEmSt12memory_order(ptr noundef nonnull align 8 dereferenceable(8) %20, i64 noundef 0, i32 noundef 0) #1
  %21 = getelementptr inbounds nuw %"struct.absl::container_internal::HashtablezInfo", ptr %15, i32 0, i32 6
  call void @_ZNSt13__atomic_baseImE5storeEmSt12memory_order(ptr noundef nonnull align 8 dereferenceable(8) %21, i64 noundef 0, i32 noundef 0) #1
  %22 = getelementptr inbounds nuw %"struct.absl::container_internal::HashtablezInfo", ptr %15, i32 0, i32 7
  call void @_ZNSt13__atomic_baseImE5storeEmSt12memory_order(ptr noundef nonnull align 8 dereferenceable(8) %22, i64 noundef 0, i32 noundef 0) #1
  %23 = getelementptr inbounds nuw %"struct.absl::container_internal::HashtablezInfo", ptr %15, i32 0, i32 8
  call void @_ZNSt13__atomic_baseImE5storeEmSt12memory_order(ptr noundef nonnull align 8 dereferenceable(8) %23, i64 noundef -1, i32 noundef 0) #1
  %24 = getelementptr inbounds nuw %"struct.absl::container_internal::HashtablezInfo", ptr %15, i32 0, i32 9
  call void @_ZNSt13__atomic_baseImE5storeEmSt12memory_order(ptr noundef nonnull align 8 dereferenceable(8) %24, i64 noundef 0, i32 noundef 0) #1
  %25 = getelementptr inbounds nuw %"struct.absl::container_internal::HashtablezInfo", ptr %15, i32 0, i32 10
  call void @_ZNSt13__atomic_baseImE5storeEmSt12memory_order(ptr noundef nonnull align 8 dereferenceable(8) %25, i64 noundef 0, i32 noundef 0) #1
  call void @llvm.lifetime.start.p0(i64 12, ptr %13) #1
  %26 = call { i64, i32 } @_ZN4absl3NowEv()
  %27 = getelementptr inbounds nuw %"class.absl::Time", ptr %13, i32 0, i32 0
  store { i64, i32 } %26, ptr %14, align 8
  call void @llvm.memcpy.p0.p0.i64(ptr align 4 %27, ptr align 8 %14, i64 12, i1 false)
  %28 = getelementptr inbounds nuw %"struct.absl::container_internal::HashtablezInfo", ptr %15, i32 0, i32 11
  call void @llvm.memcpy.p0.p0.i64(ptr align 8 %28, ptr align 4 %13, i64 12, i1 false), !tbaa.struct !26
  call void @llvm.lifetime.end.p0(i64 12, ptr %13) #1
  %29 = load i64, ptr %8, align 8, !tbaa !23
  %30 = getelementptr inbounds nuw %"struct.absl::profiling_internal::Sample", ptr %15, i32 0, i32 3
  store i64 %29, ptr %30, align 8, !tbaa !29
  %31 = getelementptr inbounds nuw %"struct.absl::container_internal::HashtablezInfo", ptr %15, i32 0, i32 14
  %32 = getelementptr inbounds [64 x ptr], ptr %31, i64 0, i64 0
  %33 = call noundef i32 @_ZN4absl13GetStackTraceEPPvii(ptr noundef %32, i32 noundef 64, i32 noundef 0)
  %34 = getelementptr inbounds nuw %"struct.absl::container_internal::HashtablezInfo", ptr %15, i32 0, i32 12
  store i32 %33, ptr %34, align 4, !tbaa !30
  %35 = load i64, ptr %9, align 8, !tbaa !23
  %36 = getelementptr inbounds nuw %"struct.absl::container_internal::HashtablezInfo", ptr %15, i32 0, i32 15
  store i64 %35, ptr %36, align 8, !tbaa !37
  %37 = load i64, ptr %10, align 8, !tbaa !23
  %38 = getelementptr inbounds nuw %"struct.absl::container_internal::HashtablezInfo", ptr %15, i32 0, i32 16
  store i64 %37, ptr %38, align 8, !tbaa !38
  %39 = load i64, ptr %11, align 8, !tbaa !23
  %40 = getelementptr inbounds nuw %"struct.absl::container_internal::HashtablezInfo", ptr %15, i32 0, i32 17
  store i64 %39, ptr %40, align 8, !tbaa !39
  %41 = load i16, ptr %12, align 2, !tbaa !24
  %42 = getelementptr inbounds nuw %"struct.absl::container_internal::HashtablezInfo", ptr %15, i32 0, i32 13
  store i16 %41, ptr %42, align 8, !tbaa !40
  ret void
}