; Function Attrs: mustprogress uwtable
define dso_local void @_ZN4absl18container_internal14HashtablezInfo18PrepareForSamplingElmmmt(ptr noundef nonnull align 8 dereferenceable(672) %0, i64 noundef %1, i64 noundef %2, i64 noundef %3, i64 noundef %4, i16 noundef zeroext %5) local_unnamed_addr #0 align 2 {
  %7 = getelementptr inbounds nuw i8, ptr %0, i64 32
  store atomic i64 0, ptr %7 monotonic, align 8
  %8 = getelementptr inbounds nuw i8, ptr %0, i64 40
  store atomic i64 0, ptr %8 monotonic, align 8
  %9 = getelementptr inbounds nuw i8, ptr %0, i64 48
  store atomic i64 0, ptr %9 monotonic, align 8
  %10 = getelementptr inbounds nuw i8, ptr %0, i64 56
  store atomic i64 0, ptr %10 monotonic, align 8
  %11 = getelementptr inbounds nuw i8, ptr %0, i64 64
  store atomic i64 0, ptr %11 monotonic, align 8
  %12 = getelementptr inbounds nuw i8, ptr %0, i64 72
  store atomic i64 0, ptr %12 monotonic, align 8
  %13 = getelementptr inbounds nuw i8, ptr %0, i64 80
  store atomic i64 0, ptr %13 monotonic, align 8
  %14 = getelementptr inbounds nuw i8, ptr %0, i64 88
  store atomic i64 -1, ptr %14 monotonic, align 8
  %15 = getelementptr inbounds nuw i8, ptr %0, i64 96
  store atomic i64 0, ptr %15 monotonic, align 8
  %16 = getelementptr inbounds nuw i8, ptr %0, i64 104
  store atomic i64 0, ptr %16 monotonic, align 8
  %17 = tail call { i64, i32 } @_ZN4absl3NowEv()
  %.fca.0.extract = extractvalue { i64, i32 } %17, 0
  %.fca.1.extract = extractvalue { i64, i32 } %17, 1
  %18 = getelementptr inbounds nuw i8, ptr %0, i64 112
  store i64 %.fca.0.extract, ptr %18, align 8
  %.sroa.4.0..sroa_idx = getelementptr inbounds nuw i8, ptr %0, i64 120
  store i32 %.fca.1.extract, ptr %.sroa.4.0..sroa_idx, align 8, !tbaa !25
  %19 = getelementptr inbounds nuw i8, ptr %0, i64 24
  store i64 %1, ptr %19, align 8, !tbaa !26
  %20 = getelementptr inbounds nuw i8, ptr %0, i64 136
  %21 = tail call noundef i32 @_ZN4absl13GetStackTraceEPPvii(ptr noundef nonnull %20, i32 noundef 64, i32 noundef 0)
  %22 = getelementptr inbounds nuw i8, ptr %0, i64 124
  store i32 %21, ptr %22, align 4, !tbaa !27
  %23 = getelementptr inbounds nuw i8, ptr %0, i64 648
  store i64 %2, ptr %23, align 8, !tbaa !32
  %24 = getelementptr inbounds nuw i8, ptr %0, i64 656
  store i64 %3, ptr %24, align 8, !tbaa !33
  %25 = getelementptr inbounds nuw i8, ptr %0, i64 664
  store i64 %4, ptr %25, align 8, !tbaa !34
  %26 = getelementptr inbounds nuw i8, ptr %0, i64 128
  store i16 %5, ptr %26, align 8, !tbaa !35
  ret void
}